; Function Attrs: nounwind uwtable
define ptr @l_Lean_Linter_MissingDocs_checkDecl___lambda__2(ptr noundef %0, ptr noundef %1, ptr readnone captures(none) %2, ptr noundef %3, ptr noundef %4, ptr noundef %5) local_unnamed_addr #0 {
  %7 = ptrtoint ptr %0 to i64
  %8 = and i64 %7, 1
  %.not = icmp eq i64 %8, 0
  br i1 %.not, label %9, label %lean_inc.exit49

9:                                                ; preds = %6
  %.val.i = load i32, ptr %0, align 4, !tbaa !8
  %10 = icmp sgt i32 %.val.i, 0
  br i1 %10, label %11, label %13, !prof !11

11:                                               ; preds = %9
  %12 = add nuw i32 %.val.i, 1
  store i32 %12, ptr %0, align 4, !tbaa !8
  br label %lean_inc.exit49

13:                                               ; preds = %9
  %.not.i64 = icmp eq i32 %.val.i, 0
  br i1 %.not.i64, label %lean_inc.exit49, label %14

14:                                               ; preds = %13
  tail call void @lean_inc_ref_cold(ptr noundef nonnull %0) #5
  br label %lean_inc.exit49

lean_inc.exit49:                                  ; preds = %14, %13, %11, %6
  %15 = tail call ptr @l_Lean_Syntax_getKind(ptr noundef %0) #5
  %16 = tail call zeroext i8 @l_Lean_Linter_MissingDocs_declModifiersPubNoDoc(ptr noundef %1)
  %17 = icmp eq i8 %16, 0
  br i1 %17, label %18, label %36

18:                                               ; preds = %lean_inc.exit49
  %19 = tail call ptr @l_Lean_Linter_MissingDocs_checkDecl___lambda__1(ptr noundef %0, ptr noundef %15, ptr nonnull poison, ptr noundef %3, ptr noundef %4, ptr noundef %5)
  %20 = ptrtoint ptr %15 to i64
  %21 = and i64 %20, 1
  %.not81 = icmp eq i64 %21, 0
  br i1 %.not81, label %22, label %lean_dec.exit46

22:                                               ; preds = %18
  %23 = load i32, ptr %15, align 4, !tbaa !8
  %24 = icmp sgt i32 %23, 1
  br i1 %24, label %25, label %27, !prof !11

25:                                               ; preds = %22
  %26 = add nsw i32 %23, -1
  store i32 %26, ptr %15, align 4, !tbaa !8
  br label %lean_dec.exit46

27:                                               ; preds = %22
  %.not.i = icmp eq i32 %23, 0
  br i1 %.not.i, label %lean_dec.exit46, label %28

28:                                               ; preds = %27
  tail call void @lean_dec_ref_cold(ptr noundef nonnull %15) #5
  br label %lean_dec.exit46

lean_dec.exit46:                                  ; preds = %28, %27, %25, %18
  br i1 %.not, label %29, label %lean_dec.exit45

29:                                               ; preds = %lean_dec.exit46
  %30 = load i32, ptr %0, align 4, !tbaa !8
  %31 = icmp sgt i32 %30, 1
  br i1 %31, label %32, label %34, !prof !11

32:                                               ; preds = %29
  %33 = add nsw i32 %30, -1
  store i32 %33, ptr %0, align 4, !tbaa !8
  br label %lean_dec.exit45

34:                                               ; preds = %29
  %.not.i50 = icmp eq i32 %30, 0
  br i1 %.not.i50, label %lean_dec.exit45, label %35

35:                                               ; preds = %34
  tail call void @lean_dec_ref_cold(ptr noundef nonnull %0) #5
  br label %lean_dec.exit45

36:                                               ; preds = %lean_inc.exit49
  %37 = tail call ptr @l_Lean_Syntax_getArg(ptr noundef %0, ptr noundef nonnull inttoptr (i64 3 to ptr)) #5
  %38 = tail call ptr @l_Lean_Syntax_getArg(ptr noundef %37, ptr noundef nonnull inttoptr (i64 1 to ptr)) #5
  %39 = ptrtoint ptr %37 to i64
  %40 = and i64 %39, 1
  %.not74 = icmp eq i64 %40, 0
  br i1 %.not74, label %41, label %lean_dec.exit44

41:                                               ; preds = %36
  %42 = load i32, ptr %37, align 4, !tbaa !8
  %43 = icmp sgt i32 %42, 1
  br i1 %43, label %44, label %46, !prof !11

44:                                               ; preds = %41
  %45 = add nsw i32 %42, -1
  store i32 %45, ptr %37, align 4, !tbaa !8
  br label %lean_dec.exit44

46:                                               ; preds = %41
  %.not.i52 = icmp eq i32 %42, 0
  br i1 %.not.i52, label %lean_dec.exit44, label %47

47:                                               ; preds = %46
  tail call void @lean_dec_ref_cold(ptr noundef nonnull %37) #5
  br label %lean_dec.exit44

lean_dec.exit44:                                  ; preds = %47, %46, %44, %36
  %48 = ptrtoint ptr %3 to i64
  %49 = and i64 %48, 1
  %.not75 = icmp eq i64 %49, 0
  br i1 %.not75, label %50, label %lean_inc.exit48

50:                                               ; preds = %lean_dec.exit44
  %.val.i65 = load i32, ptr %3, align 4, !tbaa !8
  %51 = icmp sgt i32 %.val.i65, 0
  br i1 %51, label %52, label %54, !prof !11

52:                                               ; preds = %50
  %53 = add nuw i32 %.val.i65, 1
  store i32 %53, ptr %3, align 4, !tbaa !8
  br label %lean_inc.exit48

54:                                               ; preds = %50
  %.not.i66 = icmp eq i32 %.val.i65, 0
  br i1 %.not.i66, label %lean_inc.exit48, label %55

55:                                               ; preds = %54
  tail call void @lean_inc_ref_cold(ptr noundef nonnull %3) #5
  br label %lean_inc.exit48

lean_inc.exit48:                                  ; preds = %55, %54, %52, %lean_dec.exit44
  %56 = tail call ptr @l_Lean_Linter_MissingDocs_lintDeclHead(ptr noundef %15, ptr noundef %38, ptr noundef %3, ptr noundef %4, ptr noundef %5)
  %57 = ptrtoint ptr %38 to i64
  %58 = and i64 %57, 1
  %.not76 = icmp eq i64 %58, 0
  br i1 %.not76, label %59, label %lean_dec.exit43

59:                                               ; preds = %lean_inc.exit48
  %60 = load i32, ptr %38, align 4, !tbaa !8
  %61 = icmp sgt i32 %60, 1
  br i1 %61, label %62, label %64, !prof !11

62:                                               ; preds = %59
  %63 = add nsw i32 %60, -1
  store i32 %63, ptr %38, align 4, !tbaa !8
  br label %lean_dec.exit43

64:                                               ; preds = %59
  %.not.i54 = icmp eq i32 %60, 0
  br i1 %.not.i54, label %lean_dec.exit43, label %65

65:                                               ; preds = %64
  tail call void @lean_dec_ref_cold(ptr noundef nonnull %38) #5
  br label %lean_dec.exit43

lean_dec.exit43:                                  ; preds = %65, %64, %62, %lean_inc.exit48
  %66 = getelementptr inbounds nuw i8, ptr %56, i64 8
  %67 = load ptr, ptr %66, align 8, !tbaa !4
  %68 = ptrtoint ptr %67 to i64
  %69 = and i64 %68, 1
  %.not77 = icmp eq i64 %69, 0
  br i1 %.not77, label %70, label %lean_inc.exit47

70:                                               ; preds = %lean_dec.exit43
  %.val.i68 = load i32, ptr %67, align 4, !tbaa !8
  %71 = icmp sgt i32 %.val.i68, 0
  br i1 %71, label %72, label %74, !prof !11

72:                                               ; preds = %70
  %73 = add nuw i32 %.val.i68, 1
  store i32 %73, ptr %67, align 4, !tbaa !8
  br label %lean_inc.exit47

74:                                               ; preds = %70
  %.not.i69 = icmp eq i32 %.val.i68, 0
  br i1 %.not.i69, label %lean_inc.exit47, label %75

75:                                               ; preds = %74
  tail call void @lean_inc_ref_cold(ptr noundef nonnull %67) #5
  br label %lean_inc.exit47

lean_inc.exit47:                                  ; preds = %75, %74, %72, %lean_dec.exit43
  %76 = getelementptr inbounds nuw i8, ptr %56, i64 16
  %77 = load ptr, ptr %76, align 8, !tbaa !4
  %78 = ptrtoint ptr %77 to i64
  %79 = and i64 %78, 1
  %.not78 = icmp eq i64 %79, 0
  br i1 %.not78, label %80, label %lean_inc.exit

80:                                               ; preds = %lean_inc.exit47
  %.val.i71 = load i32, ptr %77, align 4, !tbaa !8
  %81 = icmp sgt i32 %.val.i71, 0
  br i1 %81, label %82, label %84, !prof !11

82:                                               ; preds = %80
  %83 = add nuw i32 %.val.i71, 1
  store i32 %83, ptr %77, align 4, !tbaa !8
  br label %lean_inc.exit

84:                                               ; preds = %80
  %.not.i72 = icmp eq i32 %.val.i71, 0
  br i1 %.not.i72, label %lean_inc.exit, label %85

85:                                               ; preds = %84
  tail call void @lean_inc_ref_cold(ptr noundef nonnull %77) #5
  br label %lean_inc.exit

lean_inc.exit:                                    ; preds = %85, %84, %82, %lean_inc.exit47
  %86 = ptrtoint ptr %56 to i64
  %87 = and i64 %86, 1
  %.not79 = icmp eq i64 %87, 0
  br i1 %.not79, label %88, label %lean_dec.exit42

88:                                               ; preds = %lean_inc.exit
  %89 = load i32, ptr %56, align 4, !tbaa !8
  %90 = icmp sgt i32 %89, 1
  br i1 %90, label %91, label %93, !prof !11

91:                                               ; preds = %88
  %92 = add nsw i32 %89, -1
  store i32 %92, ptr %56, align 4, !tbaa !8
  br label %lean_dec.exit42

93:                                               ; preds = %88
  %.not.i56 = icmp eq i32 %89, 0
  br i1 %.not.i56, label %lean_dec.exit42, label %94

94:                                               ; preds = %93
  tail call void @lean_dec_ref_cold(ptr noundef nonnull %56) #5
  br label %lean_dec.exit42

lean_dec.exit42:                                  ; preds = %94, %93, %91, %lean_inc.exit
  %95 = tail call ptr @l_Lean_Linter_MissingDocs_checkDecl___lambda__1(ptr noundef %0, ptr noundef %15, ptr poison, ptr noundef %3, ptr noundef %4, ptr noundef %77)
  br i1 %.not77, label %96, label %lean_dec.exit41

96:                                               ; preds = %lean_dec.exit42
  %97 = load i32, ptr %67, align 4, !tbaa !8
  %98 = icmp sgt i32 %97, 1
  br i1 %98, label %99, label %101, !prof !11

99:                                               ; preds = %96
  %100 = add nsw i32 %97, -1
  store i32 %100, ptr %67, align 4, !tbaa !8
  br label %lean_dec.exit41

101:                                              ; preds = %96
  %.not.i58 = icmp eq i32 %97, 0
  br i1 %.not.i58, label %lean_dec.exit41, label %102

102:                                              ; preds = %101
  tail call void @lean_dec_ref_cold(ptr noundef nonnull %67) #5
  br label %lean_dec.exit41

lean_dec.exit41:                                  ; preds = %102, %101, %99, %lean_dec.exit42
  %103 = ptrtoint ptr %15 to i64
  %104 = and i64 %103, 1
  %.not80 = icmp eq i64 %104, 0
  br i1 %.not80, label %105, label %lean_dec.exit40

105:                                              ; preds = %lean_dec.exit41
  %106 = load i32, ptr %15, align 4, !tbaa !8
  %107 = icmp sgt i32 %106, 1
  br i1 %107, label %108, label %110, !prof !11

108:                                              ; preds = %105
  %109 = add nsw i32 %106, -1
  store i32 %109, ptr %15, align 4, !tbaa !8
  br label %lean_dec.exit40

110:                                              ; preds = %105
  %.not.i60 = icmp eq i32 %106, 0
  br i1 %.not.i60, label %lean_dec.exit40, label %111

111:                                              ; preds = %110
  tail call void @lean_dec_ref_cold(ptr noundef nonnull %15) #5
  br label %lean_dec.exit40

lean_dec.exit40:                                  ; preds = %111, %110, %108, %lean_dec.exit41
  br i1 %.not, label %112, label %lean_dec.exit45

112:                                              ; preds = %lean_dec.exit40
  %113 = load i32, ptr %0, align 4, !tbaa !8
  %114 = icmp sgt i32 %113, 1
  br i1 %114, label %115, label %117, !prof !11

115:                                              ; preds = %112
  %116 = add nsw i32 %113, -1
  store i32 %116, ptr %0, align 4, !tbaa !8
  br label %lean_dec.exit45

117:                                              ; preds = %112
  %.not.i62 = icmp eq i32 %113, 0
  br i1 %.not.i62, label %lean_dec.exit45, label %118

118:                                              ; preds = %117
  tail call void @lean_dec_ref_cold(ptr noundef nonnull %0) #5
  br label %lean_dec.exit45

lean_dec.exit45:                                  ; preds = %lean_dec.exit40, %115, %117, %118, %lean_dec.exit46, %32, %34, %35
  %.0 = phi ptr [ %19, %35 ], [ %19, %34 ], [ %19, %32 ], [ %19, %lean_dec.exit46 ], [ %95, %118 ], [ %95, %117 ], [ %95, %115 ], [ %95, %lean_dec.exit40 ]
  ret ptr %.0
}